target datalayout = "e-m:e-p270:32:32-p271:32:32-p272:64:64-i64:64-i128:128-f80:128-n8:16:32:64-S128"
target triple = "x86_64-pc-linux-gnu"

%struct.WebPMux = type { ptr, ptr, ptr, ptr, ptr, ptr, ptr, i32, i32 }

; Function Attrs: nounwind uwtable
define internal void @DeleteAllImages(ptr noundef %0) #0 {
  %2 = alloca ptr, align 8
  store ptr %0, ptr %2, align 8, !tbaa !24
  br label %3

3:                                                ; preds = %7, %1
  %4 = load ptr, ptr %2, align 8, !tbaa !24
  %5 = load ptr, ptr %4, align 8, !tbaa !26
  %6 = icmp ne ptr %5, null
  br i1 %6, label %7, label %12

7:                                                ; preds = %3
  %8 = load ptr, ptr %2, align 8, !tbaa !24
  %9 = load ptr, ptr %8, align 8, !tbaa !26
  %10 = call ptr @MuxImageDelete(ptr noundef %9)
  %11 = load ptr, ptr %2, align 8, !tbaa !24
  store ptr %10, ptr %11, align 8, !tbaa !26
  br label %3, !llvm.loop !27

12:                                               ; preds = %3
  ret void
}

; Function Attrs: nounwind uwtable
define internal void @MuxRelease(ptr noundef %0) #0 {
  %2 = alloca ptr, align 8
  store ptr %0, ptr %2, align 8, !tbaa !7
  %3 = load ptr, ptr %2, align 8, !tbaa !7
  %4 = getelementptr inbounds nuw %struct.WebPMux, ptr %3, i32 0, i32 0
  call void @DeleteAllImages(ptr noundef %4)
  %5 = load ptr, ptr %2, align 8, !tbaa !7
  %6 = getelementptr inbounds nuw %struct.WebPMux, ptr %5, i32 0, i32 5
  call void @ChunkListDelete(ptr noundef %6)
  %7 = load ptr, ptr %2, align 8, !tbaa !7
  %8 = getelementptr inbounds nuw %struct.WebPMux, ptr %7, i32 0, i32 1
  call void @ChunkListDelete(ptr noundef %8)
  %9 = load ptr, ptr %2, align 8, !tbaa !7
  %10 = getelementptr inbounds nuw %struct.WebPMux, ptr %9, i32 0, i32 4
  call void @ChunkListDelete(ptr noundef %10)
  %11 = load ptr, ptr %2, align 8, !tbaa !7
  %12 = getelementptr inbounds nuw %struct.WebPMux, ptr %11, i32 0, i32 2
  call void @ChunkListDelete(ptr noundef %12)
  %13 = load ptr, ptr %2, align 8, !tbaa !7
  %14 = getelementptr inbounds nuw %struct.WebPMux, ptr %13, i32 0, i32 3
  call void @ChunkListDelete(ptr noundef %14)
  %15 = load ptr, ptr %2, align 8, !tbaa !7
  %16 = getelementptr inbounds nuw %struct.WebPMux, ptr %15, i32 0, i32 6
  call void @ChunkListDelete(ptr noundef %16)
  ret void
}

; Function Attrs: nounwind uwtable
define void @WebPMuxDelete(ptr noundef %0) #0 {
  %2 = alloca ptr, align 8
  store ptr %0, ptr %2, align 8, !tbaa !7
  %3 = load ptr, ptr %2, align 8, !tbaa !7
  %4 = icmp ne ptr %3, null
  br i1 %4, label %5, label %8

5:                                                ; preds = %1
  %6 = load ptr, ptr %2, align 8, !tbaa !7
  call void @MuxRelease(ptr noundef %6)
  %7 = load ptr, ptr %2, align 8, !tbaa !7
  call void @WebPSafeFree(ptr noundef %7)
  br label %8

8:                                                ; preds = %5, %1
  ret void
}