; Function Attrs: nounwind uwtable
define void @WebPMuxDelete(ptr noundef %0) local_unnamed_addr #0 {
  %.not = icmp eq ptr %0, null
  br i1 %.not, label %11, label %2

2:                                                ; preds = %1
  %.pr.i.i = load ptr, ptr %0, align 8, !tbaa !3
  %.not3.i.i = icmp eq ptr %.pr.i.i, null
  br i1 %.not3.i.i, label %MuxRelease.exit, label %.lr.ph.i.i

.lr.ph.i.i:                                       ; preds = %2, %.lr.ph.i.i
  %3 = phi ptr [ %4, %.lr.ph.i.i ], [ %.pr.i.i, %2 ]
  %4 = tail call ptr @MuxImageDelete(ptr noundef nonnull %3) #7
  store ptr %4, ptr %0, align 8, !tbaa !3
  %.not.i.i = icmp eq ptr %4, null
  br i1 %.not.i.i, label %MuxRelease.exit, label %.lr.ph.i.i, !llvm.loop !8

MuxRelease.exit:                                  ; preds = %.lr.ph.i.i, %2
  %5 = getelementptr inbounds nuw i8, ptr %0, i64 40
  tail call void @ChunkListDelete(ptr noundef nonnull %5) #7
  %6 = getelementptr inbounds nuw i8, ptr %0, i64 8
  tail call void @ChunkListDelete(ptr noundef nonnull %6) #7
  %7 = getelementptr inbounds nuw i8, ptr %0, i64 32
  tail call void @ChunkListDelete(ptr noundef nonnull %7) #7
  %8 = getelementptr inbounds nuw i8, ptr %0, i64 16
  tail call void @ChunkListDelete(ptr noundef nonnull %8) #7
  %9 = getelementptr inbounds nuw i8, ptr %0, i64 24
  tail call void @ChunkListDelete(ptr noundef nonnull %9) #7
  %10 = getelementptr inbounds nuw i8, ptr %0, i64 48
  tail call void @ChunkListDelete(ptr noundef nonnull %10) #7
  tail call void @WebPSafeFree(ptr noundef nonnull %0) #7
  br label %11

11:                                               ; preds = %MuxRelease.exit, %1
  ret void
}